; Function Attrs: mustprogress nounwind uwtable
define hidden noundef zeroext i1 @dbg_is_safe(ptr noundef %0, i64 noundef %1) local_unnamed_addr #1 {
  %.not = icmp eq ptr %0, null
  br i1 %.not, label %6, label %3

3:                                                ; preds = %2
  %4 = tail call noundef i64 @SafeFetchN_impl(ptr noundef nonnull %0, i64 noundef %1) #16
  %5 = icmp ne i64 %4, %1
  br label %6

6:                                                ; preds = %3, %2
  %7 = phi i1 [ false, %2 ], [ %5, %3 ]
  ret i1 %7
}